#include <math.h>
#include <stdio.h>
#include <stdlib.h>
#include <string.h>

int main()
{
	char s[501], a[501][5] = { "\0" };
	int n, i, j, k, l, b[500] = { 0 }, c[500], z = 0;
	scanf("%d", &n);
	scanf("%s", s);
	l = strlen(s);
	for (i = 0; i < l - n + 1; i++)
	{
		for (j = 0; j < n; j++)
		{
			a[i][j] = s[i + j];
		}
	}
	for (i = 0; i < l - n + 1; i++)
	{
		for (j = i+1; j < l - n + 1; j++)
		{
			if (strcmp(a[i], a[j]) == 0)
			{
				b[i] = b[i] + 1;
			}
			else;
		}
	}
	for (k = 500; k > 0 && z == 0; k--)
	{
		for (i = 0; i < l - n + 1; i++)
		{
			if (b[i] == k)
			{
				c[z] = i;
				z = z + 1;
			}
			else;
		}
	}
	if (z == 0)
		printf("NO");
	else
	{
		printf("%d\n", k + 2);
		for (i = 0; i < z; i++)
			printf("%s\n", a[c[i]]);
	}
	return 0;
}