; ModuleID = '51/845.c'
source_filename = "51/845.c"
target datalayout = "e-m:e-p270:32:32-p271:32:32-p272:64:64-i64:64-f80:128-n8:16:32:64-S128"
target triple = "x86_64-pc-linux-gnu"

@.str = private unnamed_addr constant [3 x i8] c"%d\00", align 1
@.str.1 = private unnamed_addr constant [3 x i8] c"%s\00", align 1
@.str.2 = private unnamed_addr constant [3 x i8] c"NO\00", align 1
@.str.3 = private unnamed_addr constant [4 x i8] c"%d\0A\00", align 1
@.str.4 = private unnamed_addr constant [4 x i8] c"%s\0A\00", align 1

; Function Attrs: noinline nounwind uwtable
define dso_local i32 @main() #0 {
  %1 = alloca i32, align 4
  %2 = alloca [501 x i8], align 16
  %3 = alloca [501 x [5 x i8]], align 16
  %4 = alloca i32, align 4
  %5 = alloca i32, align 4
  %6 = alloca i32, align 4
  %7 = alloca i32, align 4
  %8 = alloca i32, align 4
  %9 = alloca [500 x i32], align 16
  %10 = alloca [500 x i32], align 16
  %11 = alloca i32, align 4
  store i32 0, i32* %1, align 4
  %12 = bitcast [501 x [5 x i8]]* %3 to i8*
  call void @llvm.memset.p0i8.i64(i8* align 16 %12, i8 0, i64 2505, i1 false)
  %13 = bitcast [500 x i32]* %9 to i8*
  call void @llvm.memset.p0i8.i64(i8* align 16 %13, i8 0, i64 2000, i1 false)
  store i32 0, i32* %11, align 4
  %14 = call i32 (i8*, ...) @__isoc99_scanf(i8* getelementptr inbounds ([3 x i8], [3 x i8]* @.str, i64 0, i64 0), i32* %4)
  %15 = getelementptr inbounds [501 x i8], [501 x i8]* %2, i64 0, i64 0
  %16 = call i32 (i8*, ...) @__isoc99_scanf(i8* getelementptr inbounds ([3 x i8], [3 x i8]* @.str.1, i64 0, i64 0), i8* %15)
  %17 = getelementptr inbounds [501 x i8], [501 x i8]* %2, i64 0, i64 0
  %18 = call i64 @strlen(i8* %17) #4
  %19 = trunc i64 %18 to i32
  store i32 %19, i32* %8, align 4
  store i32 0, i32* %5, align 4
  br label %20

20:                                               ; preds = %49, %0
  %21 = load i32, i32* %5, align 4
  %22 = load i32, i32* %8, align 4
  %23 = load i32, i32* %4, align 4
  %24 = sub nsw i32 %22, %23
  %25 = add nsw i32 %24, 1
  %26 = icmp slt i32 %21, %25
  br i1 %26, label %27, label %52

27:                                               ; preds = %20
  store i32 0, i32* %6, align 4
  br label %28

28:                                               ; preds = %45, %27
  %29 = load i32, i32* %6, align 4
  %30 = load i32, i32* %4, align 4
  %31 = icmp slt i32 %29, %30
  br i1 %31, label %32, label %48

32:                                               ; preds = %28
  %33 = load i32, i32* %5, align 4
  %34 = load i32, i32* %6, align 4
  %35 = add nsw i32 %33, %34
  %36 = sext i32 %35 to i64
  %37 = getelementptr inbounds [501 x i8], [501 x i8]* %2, i64 0, i64 %36
  %38 = load i8, i8* %37, align 1
  %39 = load i32, i32* %5, align 4
  %40 = sext i32 %39 to i64
  %41 = getelementptr inbounds [501 x [5 x i8]], [501 x [5 x i8]]* %3, i64 0, i64 %40
  %42 = load i32, i32* %6, align 4
  %43 = sext i32 %42 to i64
  %44 = getelementptr inbounds [5 x i8], [5 x i8]* %41, i64 0, i64 %43
  store i8 %38, i8* %44, align 1
  br label %45

45:                                               ; preds = %32
  %46 = load i32, i32* %6, align 4
  %47 = add nsw i32 %46, 1
  store i32 %47, i32* %6, align 4
  br label %28

48:                                               ; preds = %28
  br label %49

49:                                               ; preds = %48
  %50 = load i32, i32* %5, align 4
  %51 = add nsw i32 %50, 1
  store i32 %51, i32* %5, align 4
  br label %20

52:                                               ; preds = %20
  store i32 0, i32* %5, align 4
  br label %53

53:                                               ; preds = %96, %52
  %54 = load i32, i32* %5, align 4
  %55 = load i32, i32* %8, align 4
  %56 = load i32, i32* %4, align 4
  %57 = sub nsw i32 %55, %56
  %58 = add nsw i32 %57, 1
  %59 = icmp slt i32 %54, %58
  br i1 %59, label %60, label %99

60:                                               ; preds = %53
  %61 = load i32, i32* %5, align 4
  %62 = add nsw i32 %61, 1
  store i32 %62, i32* %6, align 4
  br label %63

63:                                               ; preds = %92, %60
  %64 = load i32, i32* %6, align 4
  %65 = load i32, i32* %8, align 4
  %66 = load i32, i32* %4, align 4
  %67 = sub nsw i32 %65, %66
  %68 = add nsw i32 %67, 1
  %69 = icmp slt i32 %64, %68
  br i1 %69, label %70, label %95

70:                                               ; preds = %63
  %71 = load i32, i32* %5, align 4
  %72 = sext i32 %71 to i64
  %73 = getelementptr inbounds [501 x [5 x i8]], [501 x [5 x i8]]* %3, i64 0, i64 %72
  %74 = getelementptr inbounds [5 x i8], [5 x i8]* %73, i64 0, i64 0
  %75 = load i32, i32* %6, align 4
  %76 = sext i32 %75 to i64
  %77 = getelementptr inbounds [501 x [5 x i8]], [501 x [5 x i8]]* %3, i64 0, i64 %76
  %78 = getelementptr inbounds [5 x i8], [5 x i8]* %77, i64 0, i64 0
  %79 = call i32 @strcmp(i8* %74, i8* %78) #4
  %80 = icmp eq i32 %79, 0
  br i1 %80, label %81, label %90

81:                                               ; preds = %70
  %82 = load i32, i32* %5, align 4
  %83 = sext i32 %82 to i64
  %84 = getelementptr inbounds [500 x i32], [500 x i32]* %9, i64 0, i64 %83
  %85 = load i32, i32* %84, align 4
  %86 = add nsw i32 %85, 1
  %87 = load i32, i32* %5, align 4
  %88 = sext i32 %87 to i64
  %89 = getelementptr inbounds [500 x i32], [500 x i32]* %9, i64 0, i64 %88
  store i32 %86, i32* %89, align 4
  br label %91

90:                                               ; preds = %70
  br label %91

91:                                               ; preds = %90, %81
  br label %92

92:                                               ; preds = %91
  %93 = load i32, i32* %6, align 4
  %94 = add nsw i32 %93, 1
  store i32 %94, i32* %6, align 4
  br label %63

95:                                               ; preds = %63
  br label %96

96:                                               ; preds = %95
  %97 = load i32, i32* %5, align 4
  %98 = add nsw i32 %97, 1
  store i32 %98, i32* %5, align 4
  br label %53

99:                                               ; preds = %53
  store i32 500, i32* %7, align 4
  br label %100

100:                                              ; preds = %136, %99
  %101 = load i32, i32* %7, align 4
  %102 = icmp sgt i32 %101, 0
  br i1 %102, label %103, label %106

103:                                              ; preds = %100
  %104 = load i32, i32* %11, align 4
  %105 = icmp eq i32 %104, 0
  br label %106

106:                                              ; preds = %103, %100
  %107 = phi i1 [ false, %100 ], [ %105, %103 ]
  br i1 %107, label %108, label %139

108:                                              ; preds = %106
  store i32 0, i32* %5, align 4
  br label %109

109:                                              ; preds = %132, %108
  %110 = load i32, i32* %5, align 4
  %111 = load i32, i32* %8, align 4
  %112 = load i32, i32* %4, align 4
  %113 = sub nsw i32 %111, %112
  %114 = add nsw i32 %113, 1
  %115 = icmp slt i32 %110, %114
  br i1 %115, label %116, label %135

116:                                              ; preds = %109
  %117 = load i32, i32* %5, align 4
  %118 = sext i32 %117 to i64
  %119 = getelementptr inbounds [500 x i32], [500 x i32]* %9, i64 0, i64 %118
  %120 = load i32, i32* %119, align 4
  %121 = load i32, i32* %7, align 4
  %122 = icmp eq i32 %120, %121
  br i1 %122, label %123, label %130

123:                                              ; preds = %116
  %124 = load i32, i32* %5, align 4
  %125 = load i32, i32* %11, align 4
  %126 = sext i32 %125 to i64
  %127 = getelementptr inbounds [500 x i32], [500 x i32]* %10, i64 0, i64 %126
  store i32 %124, i32* %127, align 4
  %128 = load i32, i32* %11, align 4
  %129 = add nsw i32 %128, 1
  store i32 %129, i32* %11, align 4
  br label %131

130:                                              ; preds = %116
  br label %131

131:                                              ; preds = %130, %123
  br label %132

132:                                              ; preds = %131
  %133 = load i32, i32* %5, align 4
  %134 = add nsw i32 %133, 1
  store i32 %134, i32* %5, align 4
  br label %109

135:                                              ; preds = %109
  br label %136

136:                                              ; preds = %135
  %137 = load i32, i32* %7, align 4
  %138 = add nsw i32 %137, -1
  store i32 %138, i32* %7, align 4
  br label %100

139:                                              ; preds = %106
  %140 = load i32, i32* %11, align 4
  %141 = icmp eq i32 %140, 0
  br i1 %141, label %142, label %144

142:                                              ; preds = %139
  %143 = call i32 (i8*, ...) @printf(i8* getelementptr inbounds ([3 x i8], [3 x i8]* @.str.2, i64 0, i64 0))
  br label %165

144:                                              ; preds = %139
  %145 = load i32, i32* %7, align 4
  %146 = add nsw i32 %145, 2
  %147 = call i32 (i8*, ...) @printf(i8* getelementptr inbounds ([4 x i8], [4 x i8]* @.str.3, i64 0, i64 0), i32 %146)
  store i32 0, i32* %5, align 4
  br label %148

148:                                              ; preds = %161, %144
  %149 = load i32, i32* %5, align 4
  %150 = load i32, i32* %11, align 4
  %151 = icmp slt i32 %149, %150
  br i1 %151, label %152, label %164

152:                                              ; preds = %148
  %153 = load i32, i32* %5, align 4
  %154 = sext i32 %153 to i64
  %155 = getelementptr inbounds [500 x i32], [500 x i32]* %10, i64 0, i64 %154
  %156 = load i32, i32* %155, align 4
  %157 = sext i32 %156 to i64
  %158 = getelementptr inbounds [501 x [5 x i8]], [501 x [5 x i8]]* %3, i64 0, i64 %157
  %159 = getelementptr inbounds [5 x i8], [5 x i8]* %158, i64 0, i64 0
  %160 = call i32 (i8*, ...) @printf(i8* getelementptr inbounds ([4 x i8], [4 x i8]* @.str.4, i64 0, i64 0), i8* %159)
  br label %161

161:                                              ; preds = %152
  %162 = load i32, i32* %5, align 4
  %163 = add nsw i32 %162, 1
  store i32 %163, i32* %5, align 4
  br label %148

164:                                              ; preds = %148
  br label %165

165:                                              ; preds = %164, %142
  ret i32 0
}

; Function Attrs: argmemonly nounwind willreturn
declare void @llvm.memset.p0i8.i64(i8* nocapture writeonly, i8, i64, i1 immarg) #1

declare dso_local i32 @__isoc99_scanf(i8*, ...) #2

; Function Attrs: nounwind readonly
declare dso_local i64 @strlen(i8*) #3

; Function Attrs: nounwind readonly
declare dso_local i32 @strcmp(i8*, i8*) #3

declare dso_local i32 @printf(i8*, ...) #2


!llvm.module.flags = !{!0}
!llvm.ident = !{!1}

!0 = !{i32 1, !"wchar_size", i32 4}
!1 = !{!"clang version 10.0.0-4ubuntu1 "}
